; Function Attrs: nounwind uwtable
define dso_local range(i64 0, 2) i64 @in_range_int4_int8(ptr noundef readonly captures(none) %0) #0 {
  %2 = getelementptr inbounds nuw i8, ptr %0, i64 32
  %3 = load i64, ptr %2, align 8
  %sext = shl i64 %3, 32
  %4 = ashr exact i64 %sext, 32
  %5 = getelementptr inbounds nuw i8, ptr %0, i64 64
  %6 = load i64, ptr %5, align 8
  %7 = getelementptr inbounds nuw i8, ptr %0, i64 80
  %8 = load i64, ptr %7, align 8
  %.not = icmp ne i64 %8, 0
  %9 = getelementptr inbounds nuw i8, ptr %0, i64 96
  %10 = load i64, ptr %9, align 8
  %11 = icmp ne i64 %10, 0
  %12 = icmp slt i64 %6, 0
  br i1 %12, label %13, label %17

13:                                               ; preds = %1
  %14 = tail call zeroext i1 @errstart_cold(i32 noundef 21, ptr noundef null) #15
  tail call void @llvm.assume(i1 %14)
  %15 = tail call i32 @errcode(i32 noundef 50593922) #13
  %16 = tail call i32 (ptr, ...) @errmsg(ptr noundef nonnull @.str.6) #13
  tail call void @errfinish(ptr noundef nonnull @.str.2, i32 noundef 682, ptr noundef nonnull @__func__.in_range_int4_int8) #13
  unreachable

17:                                               ; preds = %1
  %18 = getelementptr inbounds nuw i8, ptr %0, i64 48
  %19 = load i64, ptr %18, align 8
  %sext20 = shl i64 %19, 32
  %20 = ashr exact i64 %sext20, 32
  %21 = sub nsw i64 0, %6
  %spec.select = select i1 %.not, i64 %21, i64 %6
  %22 = tail call { i64, i1 } @llvm.sadd.with.overflow.i64(i64 range(i64 -2147483648, 2147483648) %20, i64 range(i64 -9223372036854775807, -9223372036854775808) %spec.select)
  %23 = extractvalue { i64, i1 } %22, 1
  %24 = extractvalue { i64, i1 } %22, 0
  br i1 %23, label %25, label %26, !prof !14

25:                                               ; preds = %17
  %spec.select18 = xor i1 %.not, %11
  br label %31

26:                                               ; preds = %17
  br i1 %11, label %27, label %29

27:                                               ; preds = %26
  %28 = icmp sge i64 %24, %4
  br label %31

29:                                               ; preds = %26
  %30 = icmp sle i64 %24, %4
  br label %31

31:                                               ; preds = %29, %27, %25
  %.0.in = phi i1 [ %spec.select18, %25 ], [ %28, %27 ], [ %30, %29 ]
  %.0 = zext i1 %.0.in to i64
  ret i64 %.0
}